((lp0
(I0
S'di'
p1
tp2
a(I1
S'do'
p3
tp4
a(lp5
((I0
S'y'
p6
tp7
(lp8
(I1
S'x'
p9
tp10
atp11
a((dp12
(dp13
I0
(dp14
S'width'
p15
I64
sS'top'
p16
I118
sS'value'
p17
NsS'height'
p18
I64
sS'caption'
p19
S'di'
p20
sS'left'
p21
I195
ssI1
(dp22
g15
I64
sg16
I216
sg17
Nsg18
I64
sg19
S'do'
p23
sg21
I401
ss(lp24
((I0
g6
I1
g9
tp25
(dp26
S'path'
p27
(lp28
I259
aI150
aI275
aI150
aF360.0
aF207.0
aI275
aI258
aI385
aI258
aF350.0
aF328.0
aI401
aI258
astp29
atp30
tp31
.