((lp0
(I1
S'Joint'
p1
tp2
a(I0
S'do'
p3
tp4
a(I2
S'xor'
p5
tp6
a(I3
S'Const'
p7
tp8
a(I4
g7
tp9
a(I5
S'Delay'
p10
tp11
a(I6
S'di'
p12
tp13
a(lp14
((I2
S'y'
p15
tp16
(lp17
(I1
S''
p18
tp19
atp20
a((I4
g15
tp21
(lp22
(I0
S'nr'
p23
tp24
atp25
a((I6
g15
tp26
(lp27
(I2
S'a'
p28
tp29
atp30
a((I1
g18
tp31
(lp32
(I5
S'x'
p33
tp34
atp35
a((I3
g15
tp36
(lp37
(I6
g23
tp38
atp39
a((I5
g15
tp40
(lp41
(I2
S'b'
p42
tp43
atp44
a((I1
g18
tp45
(lp46
(I0
g33
tp47
atp48
a((dp49
(dp50
I0
(dp51
S'orientation'
p52
(I0
I0
I0
tp53
sS'width'
p54
I64
sS'top'
p55
I340
sS'value'
p56
NsS'height'
p57
I64
sS'caption'
p58
g3
sS'left'
p59
I540
ssI1
(dp60
g52
g53
sg54
I8
sg55
I315
sg56
Nsg57
I8
sg58
g1
sg59
I460
ssI2
(dp61
g52
g53
sg54
I64
sg55
I194
sg56
Nsg57
I64
sg58
g5
sg59
I381
ssI3
(dp62
g52
g53
sg54
I96
sg55
I201
sg56
S'1'
p63
sg57
I28
sg58
g7
sg59
I132
ssI4
(dp64
g52
g53
sg54
I96
sg55
I274
sg56
S'2'
p65
sg57
I28
sg58
g7
sg59
I481
ssI5
(dp66
g52
g53
sg54
I64
sg55
I288
sg56
S'0'
p67
sg57
I64
sg58
g10
sg59
I362
ssI6
(dp68
g52
g53
sg54
I64
sg55
I183
sg56
Nsg57
I64
sg58
g12
sg59
I259
ss(lp69
((I6
g15
I2
g28
tp70
(dp71
S'path'
p72
(lp73
I323
aI215
aI339
aI215
aI365
aI215
aI381
aI215
astp74
a((I2
g15
I1
g18
tp75
(dp76
g72
(lp77
I445
aI226
aI461
aI226
aI464
aI226
aI464
aI319
aF464.0
aI319
astp78
a((I1
g18
I0
g33
tp79
(dp80
g72
(lp81
F464.0
aI319
aI464
aI319
aI464
aI382
aI524
aI382
aI540
aI382
astp82
a((I3
g15
I6
g23
tp83
(dp84
S'path'
p85
(lp86
I228
aI215
aI244
aI215
aI243
aI215
aI259
aI215
astp87
a((I4
g15
I0
g23
tp88
(dp89
g72
(lp90
I577
aI288
aI593
aI288
aI593
aI310
aI524
aI310
aI524
aI361
aI540
aI361
astp91
a((I5
g15
I2
g42
tp92
(dp93
g72
(lp94
I362
aI320
aI346
aI320
aI346
aI236
aI365
aI236
aI381
aI236
astp95
a((I1
g18
I5
g33
tp96
(dp97
g72
(lp98
F464.0
aI319
aI464
aI319
aI464
aI320
aI442
aI320
aI426
aI320
astp99
atp100
tp101
.