ccopy_reg
_reconstructor
p0
(cdfs
GraphModel
p1
c__builtin__
object
p2
Ntp3
Rp4
(dp5
S'connections'
p6
(dp7
(g0
(cdfs
BlockModel
p8
g2
Ntp9
Rp10
(dp11
S'terms'
p12
(lp13
g0
(cdfs
In
p14
g2
Ntp15
Rp16
(dp17
S'direction'
p18
I1
sS'type_name'
p19
NsS'side'
p20
S'C'
p21
sS'name'
p22
S''
p23
sS'pos'
p24
I0
sbag0
(cdfs
Out
p25
g2
Ntp26
Rp27
(dp28
g18
I2
sg19
Nsg20
g21
sg22
g23
sg24
I0
sbag0
(g25
g2
Ntp29
Rp30
(dp31
g18
I2
sg19
Nsg20
g21
sg22
g23
sg24
I0
sbasS'width'
p32
I8
sS'graph'
p33
g4
sS'top'
p34
I75
sS'height'
p35
I8
sS'caption'
p36
S'Joint'
p37
sS'can_move'
p38
I01
sS'loop_break'
p39
I00
sS'prototype'
p40
g0
(cdfs
JointProto
p41
g2
Ntp42
Rp43
(dp44
S'default_size'
p45
(I8
I8
tp46
sg19
g37
sg12
g13
sbsS'left'
p47
I347
sbg27
tp48
(lp49
(g0
(g8
g2
Ntp50
Rp51
(dp52
S'terms'
p53
(lp54
g0
(g14
g2
Ntp55
Rp56
(dp57
S'direction'
p58
I1
sS'type_name'
p59
NsS'pos'
p60
F0.33300000000000002
sS'name'
p61
S'x'
p62
sS'side'
p63
S'e'
p64
sbag0
(g14
g2
Ntp65
Rp66
(dp67
g58
I1
sg59
Nsg60
F0.66600000000000004
sg61
S'0'
p68
sg63
g64
sbag0
(g25
g2
Ntp69
Rp70
(dp71
g58
I2
sg59
Nsg60
F0.5
sg61
S'y'
p72
sg63
S'w'
p73
sbasS'width'
p74
I64
sS'graph'
p75
g4
sS'top'
p76
I120
sS'height'
p77
I64
sS'caption'
p78
S'1/z'
p79
sS'can_move'
p80
I01
sS'loop_break'
p81
I00
sS'prototype'
p82
g0
(cdfs
DelayProto
p83
g2
Ntp84
Rp85
(dp86
g81
I01
sS'default_size'
p87
(I64
I64
tp88
sg59
g79
sg53
g54
sbsS'left'
p89
I250
sbg56
tp90
as(g51
g70
tp91
(lp92
(g0
(g8
g2
Ntp93
Rp94
(dp95
g53
(lp96
g0
(g14
g2
Ntp97
Rp98
(dp99
g58
I1
sg59
Nsg60
F0.33300000000000002
sg61
S'a'
p100
sg63
g73
sbag0
(g14
g2
Ntp101
Rp102
(dp103
g58
I1
sg59
Nsg60
F0.66600000000000004
sg61
S'b'
p104
sg63
g73
sbag0
(g25
g2
Ntp105
Rp106
(dp107
g58
I2
sg59
Nsg60
F0.5
sg61
g72
sg63
g64
sbasg74
I64
sg75
g4
sg76
I47
sg77
I64
sg78
S'xor'
p108
sg80
I01
sg81
I00
sg82
g0
(cdfs
SBP
p109
g2
Ntp110
Rp111
(dp112
g87
g88
sg59
g108
sg53
g96
sbsg89
I252
sbg102
tp113
as(g94
g106
tp114
(lp115
(g10
g16
tp116
as(g0
(g8
g2
Ntp117
Rp118
(dp119
g53
(lp120
g0
(g25
g2
Ntp121
Rp122
(dp123
g58
I2
sg59
Nsg60
F0.5
sg61
g72
sg63
g64
sbasg74
I96
sg75
g4
sg76
I54
sg77
I28
sg78
S'1'
p124
sg80
I01
sg81
I00
sg82
g0
(cdfs
ConstProto
p125
g2
Ntp126
Rp127
(dp128
g87
(I96
I28
tp129
sg59
S'Const'
p130
sg53
g120
sbsg89
I26
sbg122
tp131
(lp132
(g0
(g8
g2
Ntp133
Rp134
(dp135
g53
(lp136
g0
(g14
g2
Ntp137
Rp138
(dp139
g58
I1
sg59
Nsg60
F0.5
sg61
S'nr'
p140
sg63
g73
sbag0
(g25
g2
Ntp141
Rp142
(dp143
g58
I2
sg59
Nsg60
F0.5
sg61
g72
sg63
g64
sbasg74
I64
sg75
g4
sg76
I36
sg77
I64
sg78
S'di'
p144
sg80
I01
sg81
I00
sg82
g0
(g109
g2
Ntp145
Rp146
(dp147
g87
g88
sg59
g144
sg53
g136
sbsg89
I153
sbg138
tp148
as(g0
(g8
g2
Ntp149
Rp150
(dp151
g53
g120
sg74
I96
sg75
g4
sg76
I11
sg77
I28
sg78
S'2'
p152
sg80
I01
sg81
I00
sg82
g127
sg89
I242
sbg122
tp153
(lp154
(g0
(g8
g2
Ntp155
Rp156
(dp157
g53
(lp158
g0
(g14
g2
Ntp159
Rp160
(dp161
g58
I1
sg59
Nsg60
F0.33300000000000002
sg61
g140
sg63
g73
sbag0
(g14
g2
Ntp162
Rp163
(dp164
g58
I1
sg59
Nsg60
F0.66600000000000004
sg61
g62
sg63
g73
sbasg74
I64
sg75
g4
sg76
I36
sg77
I64
sg78
S'do'
p165
sg80
I01
sg81
I00
sg82
g0
(g109
g2
Ntp166
Rp167
(dp168
g87
g88
sg59
g165
sg53
g158
sbsg89
I382
sbg160
tp169
as(g10
g30
tp170
(lp171
(g156
g163
tp172
as(g0
(g8
g2
Ntp173
Rp174
(dp175
g53
g120
sg74
I96
sg75
g4
sg76
I191
sg77
I28
sg78
S'0'
p176
sg80
I01
sg81
I00
sg82
g127
sg89
I218
sbg122
tp177
(lp178
(g51
g66
tp179
as(g134
g142
tp180
(lp181
(g94
g98
tp182
assS'listeners'
p183
(lp184
sS'blocks'
p185
(lp186
g118
ag134
ag94
ag51
ag174
ag156
ag150
ag10
asb.