ccopy_reg
_reconstructor
p0
(cdfs
GraphModel
p1
c__builtin__
object
p2
Ntp3
Rp4
(dp5
S'connections'
p6
(dp7
(g0
(cdfs
BlockModel
p8
g2
Ntp9
Rp10
(dp11
S'terms'
p12
(lp13
g0
(cdfs
In
p14
g2
Ntp15
Rp16
(dp17
S'direction'
p18
I1
sS'type_name'
p19
NsS'side'
p20
S'w'
p21
sS'name'
p22
S'nr'
p23
sS'pos'
p24
F0.5
sbag0
(cdfs
Out
p25
g2
Ntp26
Rp27
(dp28
g18
I2
sg19
Nsg20
S'e'
p29
sg22
S'y'
p30
sg24
F0.5
sbasS'width'
p31
I64
sS'graph'
p32
g4
sS'top'
p33
I35
sS'height'
p34
I64
sS'caption'
p35
S'di'
p36
sS'can_move'
p37
I01
sS'loop_break'
p38
I00
sS'prototype'
p39
g0
(cdfs
SBP
p40
g2
Ntp41
Rp42
(dp43
S'default_size'
p44
(I64
I64
tp45
sg19
g36
sg12
g13
sbsS'left'
p46
I203
sbg27
tp47
(lp48
(g0
(g8
g2
Ntp49
Rp50
(dp51
g12
(lp52
g0
(g14
g2
Ntp53
Rp54
(dp55
g18
I1
sg19
Nsg20
g21
sg22
S'a'
p56
sg24
F0.33300000000000002
sbag0
(g14
g2
Ntp57
Rp58
(dp59
g18
I1
sg19
Nsg20
g21
sg22
S'b'
p60
sg24
F0.66600000000000004
sbag0
(g25
g2
Ntp61
Rp62
(dp63
g18
I2
sg19
Nsg20
g29
sg22
g30
sg24
F0.5
sbasg31
I64
sg32
g4
sg33
I46
sg34
I64
sg35
S'xor'
p64
sg37
I01
sg38
I00
sg39
g0
(g40
g2
Ntp65
Rp66
(dp67
g44
g45
sg19
g64
sg12
g52
sbsg46
I326
sbg54
tp68
as(g50
g62
tp69
(lp70
(g0
(g8
g2
Ntp71
Rp72
(dp73
g12
(lp74
g0
(g14
g2
Ntp75
Rp76
(dp77
g18
I1
sg19
Nsg20
g21
sg22
g23
sg24
F0.33300000000000002
sbag0
(g14
g2
Ntp78
Rp79
(dp80
g18
I1
sg19
Nsg20
g21
sg22
S'x'
p81
sg24
F0.66600000000000004
sbasg31
I64
sg32
g4
sg33
I243
sg34
I64
sg35
S'do'
p82
sg37
I01
sg38
I00
sg39
g0
(g40
g2
Ntp83
Rp84
(dp85
g44
g45
sg19
g82
sg12
g74
sbsg46
I518
sbg79
tp86
as(g0
(g8
g2
Ntp87
Rp88
(dp89
g12
(lp90
g0
(g14
g2
Ntp91
Rp92
(dp93
g18
I1
sg19
Nsg20
g29
sg22
g81
sg24
F0.33300000000000002
sbag0
(g14
g2
Ntp94
Rp95
(dp96
g18
I1
sg19
Nsg20
g29
sg22
S'0'
p97
sg24
F0.66600000000000004
sbag0
(g25
g2
Ntp98
Rp99
(dp100
g18
I2
sg19
Nsg20
g21
sg22
g30
sg24
F0.5
sbasg31
I64
sg32
g4
sg33
I130
sg34
I64
sg35
S'1/z'
p101
sg37
I01
sg38
I00
sg39
g0
(cdfs
DelayProto
p102
g2
Ntp103
Rp104
(dp105
g38
I01
sg44
g45
sg19
g101
sg12
g90
sbsg46
I310
sbg99
tp106
(lp107
(g50
g58
tp108
as(g0
(g8
g2
Ntp109
Rp110
(dp111
S'terms'
p112
(lp113
g0
(g25
g2
Ntp114
Rp115
(dp116
S'direction'
p117
I2
sS'type_name'
p118
NsS'pos'
p119
F0.5
sS'name'
p120
S'y'
p121
sS'side'
p122
S'e'
p123
sbasS'width'
p124
I96
sS'graph'
p125
g4
sS'top'
p126
I49
sS'height'
p127
I28
sS'caption'
p128
S'666'
p129
sS'can_move'
p130
I01
sS'loop_break'
p131
I00
sS'prototype'
p132
g0
(cdfs
ConstProto
p133
g2
Ntp134
Rp135
(dp136
S'default_size'
p137
(I96
I28
tp138
sg118
S'Const'
p139
sg112
g113
sbsS'left'
p140
I460
sbg115
tp141
(lp142
(g88
g92
tp143
as(g0
(g8
g2
Ntp144
Rp145
(dp146
g12
(lp147
g0
(g25
g2
Ntp148
Rp149
(dp150
g18
I2
sg19
Nsg20
g29
sg22
g30
sg24
F0.5
sbasg31
I96
sg32
g4
sg33
I212
sg34
I28
sg35
S'0'
p151
sg37
I01
sg38
I00
sg39
g0
(g133
g2
Ntp152
Rp153
(dp154
g44
(I96
I28
tp155
sg19
S'Const'
p156
sg12
g147
sbsg46
I286
sbg149
tp157
(lp158
(g88
g95
tp159
as(g0
(g8
g2
Ntp160
Rp161
(dp162
g12
g147
sg31
I96
sg32
g4
sg33
I53
sg34
I28
sg35
S'1'
p163
sg37
I01
sg38
I00
sg39
g153
sg46
I61
sbg149
tp164
(lp165
(g10
g16
tp166
as(g0
(g8
g2
Ntp167
Rp168
(dp169
g12
g147
sg31
I96
sg32
g4
sg33
I192
sg34
I28
sg35
S'2'
p170
sg37
I01
sg38
I00
sg39
g153
sg46
I476
sbg149
tp171
(lp172
(g72
g76
tp173
assS'listeners'
p174
(lp175
sS'blocks'
p176
(lp177
g161
ag10
ag50
ag88
ag145
ag72
ag168
ag110
asb.