ccopy_reg
_reconstructor
p0
(cdfs
GraphModel
p1
c__builtin__
object
p2
Ntp3
Rp4
(dp5
S'connections'
p6
(dp7
(g0
(cdfs
BlockModel
p8
g2
Ntp9
Rp10
(dp11
S'terms'
p12
(lp13
g0
(cdfs
InOut
p14
g2
Ntp15
Rp16
(dp17
S'direction'
p18
I3
sS'type_name'
p19
NsS'side'
p20
S'C'
p21
sS'name'
p22
S''
p23
sS'pos'
p24
I0
sbag0
(g14
g2
Ntp25
Rp26
(dp27
g18
I3
sg19
Nsg20
g21
sg22
g23
sg24
I0
sbag0
(g14
g2
Ntp28
Rp29
(dp30
g18
I3
sg19
Nsg20
g21
sg22
g23
sg24
I0
sbag0
(g14
g2
Ntp31
Rp32
(dp33
g18
I3
sg19
Nsg20
g21
sg22
g23
sg24
I0
sbag0
(cdfs
In
p34
g2
Ntp35
Rp36
(dp37
S'direction'
p38
I1
sS'type_name'
p39
NsS'pos'
p40
I0
sS'name'
p41
g23
sS'side'
p42
S'C'
p43
sbag0
(cdfs
Out
p44
g2
Ntp45
Rp46
(dp47
g38
I2
sg39
Nsg40
I0
sg41
g23
sg42
g43
sbag0
(g44
g2
Ntp48
Rp49
(dp50
g38
I2
sg39
Nsg40
I0
sg41
g23
sg42
g43
sbasS'width'
p51
I8
sS'graph'
p52
g4
sS'top'
p53
I190
sS'height'
p54
I8
sS'caption'
p55
S'Joint'
p56
sS'can_move'
p57
I01
sS'loop_break'
p58
I00
sS'prototype'
p59
g0
(cdfs
JointProto
p60
g2
Ntp61
Rp62
(dp63
S'default_size'
p64
(I8
I8
tp65
sg19
g56
sg12
g13
sbsS'left'
p66
I429
sbg46
tp67
(lp68
(g0
(g8
g2
Ntp69
Rp70
(dp71
S'terms'
p72
(lp73
g0
(g34
g2
Ntp74
Rp75
(dp76
S'direction'
p77
I1
sS'type_name'
p78
NsS'side'
p79
S'e'
p80
sS'name'
p81
S'x'
p82
sS'pos'
p83
F0.33300000000000002
sbag0
(g34
g2
Ntp84
Rp85
(dp86
g77
I1
sg78
Nsg79
g80
sg81
S'0'
p87
sg83
F0.66600000000000004
sbag0
(g44
g2
Ntp88
Rp89
(dp90
g77
I2
sg78
Nsg79
S'w'
p91
sg81
S'y'
p92
sg83
F0.5
sbasS'width'
p93
I64
sS'graph'
p94
g4
sS'top'
p95
I132
sS'height'
p96
I64
sS'caption'
p97
S'1/z'
p98
sS'can_move'
p99
I01
sS'loop_break'
p100
I00
sS'prototype'
p101
g0
(cdfs
DelayProto
p102
g2
Ntp103
Rp104
(dp105
g100
I01
sS'default_size'
p106
(I64
I64
tp107
sg78
g98
sg72
g73
sbsS'left'
p108
I282
sbg75
tp109
as(g10
g49
tp110
(lp111
(g0
(g8
g2
Ntp112
Rp113
(dp114
S'terms'
p115
(lp116
g0
(g34
g2
Ntp117
Rp118
(dp119
S'direction'
p120
I1
sS'type_name'
p121
NsS'pos'
p122
F0.33300000000000002
sS'name'
p123
S'nr'
p124
sS'side'
p125
S'w'
p126
sbag0
(g34
g2
Ntp127
Rp128
(dp129
g120
I1
sg121
Nsg122
F0.66600000000000004
sg123
S'a'
p130
sg125
g126
sbasS'width'
p131
I64
sS'graph'
p132
g4
sS'top'
p133
I288
sS'height'
p134
I64
sS'caption'
p135
S'do'
p136
sS'can_move'
p137
I01
sS'prototype'
p138
g0
(cdfs
SBP
p139
g2
Ntp140
Rp141
(dp142
S'default_size'
p143
(I64
I64
tp144
sg121
g136
sg115
g116
sbsS'left'
p145
I522
sbg128
tp146
as(g0
(g8
g2
Ntp147
Rp148
(dp149
g72
(lp150
g0
(g34
g2
Ntp151
Rp152
(dp153
g77
I1
sg78
Nsg79
g91
sg81
S'a'
p154
sg83
F0.33300000000000002
sbag0
(g34
g2
Ntp155
Rp156
(dp157
g77
I1
sg78
Nsg79
g91
sg81
S'b'
p158
sg83
F0.66600000000000004
sbag0
(g44
g2
Ntp159
Rp160
(dp161
g77
I2
sg78
Nsg79
g80
sg81
g92
sg83
F0.5
sbasg93
I64
sg94
g4
sg95
I44
sg96
I64
sg97
S'xor'
p162
sg99
I01
sg100
I00
sg101
g0
(g139
g2
Ntp163
Rp164
(dp165
g106
g107
sg78
g162
sg72
g150
sbsg108
I282
sbg152
tp166
(lp167
s(g70
g89
tp168
(lp169
(g148
g156
tp170
as(g0
(g8
g2
Ntp171
Rp172
(dp173
g115
(lp174
g0
(g34
g2
Ntp175
Rp176
(dp177
g120
I1
sg121
Nsg122
F0.5
sg123
g124
sg125
S'e'
p178
sbag0
(g44
g2
Ntp179
Rp180
(dp181
g120
I2
sg121
Nsg122
F0.5
sg123
S'y'
p182
sg125
g126
sbasg131
I64
sg132
Nsg133
I28
sg134
I64
sg135
S'di'
p183
sg137
I01
sg138
g0
(g139
g2
Ntp184
Rp185
(dp186
g143
g144
sg121
g183
sg115
g174
sbsg145
I164
sbg176
tp187
(lp188
s(g148
g160
tp189
(lp190
(g10
g36
tp191
as(g0
(g8
g2
Ntp192
Rp193
(dp194
g72
(lp195
g0
(g44
g2
Ntp196
Rp197
(dp198
g77
I2
sg78
Nsg79
g80
sg81
g92
sg83
F0.5
sbasg93
I96
sg94
g4
sg95
I218
sg96
I28
sg97
g87
sg99
I01
sg100
I00
sg101
g0
(cdfs
ConstProto
p199
g2
Ntp200
Rp201
(dp202
g106
(I96
I28
tp203
sg78
S'Const'
p204
sg72
g195
sbsg108
I269
sbg197
tp205
(lp206
(g70
g85
tp207
as(g70
g75
tp208
(lp209
s(g0
(g8
g2
Ntp210
Rp211
(dp212
g12
(lp213
g0
(g34
g2
Ntp214
Rp215
(dp216
g18
I1
sg19
Nsg20
S'w'
p217
sg22
S'nr'
p218
sg24
F0.5
sbag0
(g44
g2
Ntp219
Rp220
(dp221
g18
I2
sg19
Nsg20
S'e'
p222
sg22
S'y'
p223
sg24
F0.5
sbasg51
I64
sg52
g4
sg53
I33
sg54
I64
sg55
S'di'
p224
sg57
I01
sg58
I00
sg59
g0
(g139
g2
Ntp225
Rp226
(dp227
g64
(I64
I64
tp228
sg19
g224
sg12
g213
sbsg66
I172
sbg220
tp229
(lp230
(g148
g152
tp231
as(g113
g118
tp232
(lp233
s(g0
(g8
g2
Ntp234
Rp235
(dp236
g115
(lp237
g0
(g44
g2
Ntp238
Rp239
(dp240
g120
I2
sg121
Nsg122
F0.5
sg123
g182
sg125
g178
sbasg131
I96
sg132
g4
sg133
I51
sg134
I28
sg135
S'0'
p241
sg137
I01
sg138
g0
(g199
g2
Ntp242
Rp243
(dp244
g143
(I96
I28
tp245
sg121
S'Const'
p246
sg115
g237
sbsg145
I36
sbg239
tp247
(lp248
(g211
g215
tp249
as(g0
(g8
g2
Ntp250
Rp251
(dp252
g115
g237
sg131
I96
sg132
g4
sg133
I235
sg134
I28
sg135
S'1'
p253
sg137
I01
sg138
g243
sg145
I445
sbg239
tp254
(lp255
(g113
g118
tp256
assS'listeners'
p257
(lp258
sS'blocks'
p259
(lp260
g113
ag235
ag251
ag70
ag193
ag148
ag211
ag10
asb.