((lp0
(I0
S'Const'
p1
tp2
a(I1
g1
tp3
a(I4
S'do'
p4
tp5
a(I3
S'di'
p6
tp7
a(I2
g1
tp8
a(lp9
((dp10
(lp11
(I0
(dp12
S'caption'
p13
S'0'
p14
sS'top'
p15
I100
sS'height'
p16
I28
sS'width'
p17
I96
sS'left'
p18
I138
stp19
a(I1
(dp20
g13
S'1'
p21
sg15
I36
sg16
I28
sg17
I96
sg18
I119
stp22
a(I2
(dp23
g13
S'2'
p24
sg15
I196
sg16
I28
sg17
I96
sg18
I276
stp25
a(I3
(dp26
g13
g6
sg15
I42
sg16
I64
sg17
I64
sg18
I269
stp27
a(I4
(dp28
g13
g4
sg15
I186
sg16
I64
sg17
I64
sg18
I510
stp29
atp30
tp31
.