ccopy_reg
_reconstructor
p0
(cdfs
GraphModel
p1
c__builtin__
object
p2
Ntp3
Rp4
(dp5
S'connections'
p6
(dp7
(g0
(cdfs
BlockModel
p8
g2
Ntp9
Rp10
(dp11
S'terms'
p12
(lp13
g0
(cdfs
In
p14
g2
Ntp15
Rp16
(dp17
S'direction'
p18
I1
sS'type_name'
p19
NsS'pos'
p20
F0.5
sS'name'
p21
S'nr'
p22
sS'side'
p23
S'w'
p24
sbag0
(cdfs
Out
p25
g2
Ntp26
Rp27
(dp28
g18
I2
sg19
Nsg20
F0.5
sg21
S'y'
p29
sg23
S'e'
p30
sbasS'width'
p31
I64
sS'graph'
p32
g4
sS'top'
p33
I35
sS'height'
p34
I64
sS'caption'
p35
S'di'
p36
sS'can_move'
p37
I01
sS'loop_break'
p38
I00
sS'prototype'
p39
g0
(cdfs
SBP
p40
g2
Ntp41
Rp42
(dp43
S'default_size'
p44
(I64
I64
tp45
sg19
g36
sg12
g13
sbsS'left'
p46
I203
sbg27
tp47
(lp48
(g0
(g8
g2
Ntp49
Rp50
(dp51
g12
(lp52
g0
(g14
g2
Ntp53
Rp54
(dp55
g18
I1
sg19
Nsg20
F0.33300000000000002
sg21
S'a'
p56
sg23
g24
sbag0
(g14
g2
Ntp57
Rp58
(dp59
g18
I1
sg19
Nsg20
F0.66600000000000004
sg21
S'b'
p60
sg23
g24
sbag0
(g25
g2
Ntp61
Rp62
(dp63
g18
I2
sg19
Nsg20
F0.5
sg21
g29
sg23
g30
sbasg31
I64
sg32
g4
sg33
I46
sg34
I64
sg35
S'xor'
p64
sg37
I01
sg38
I00
sg39
g0
(g40
g2
Ntp65
Rp66
(dp67
g44
g45
sg19
g64
sg12
g52
sbsg46
I326
sbg54
tp68
as(g0
(g8
g2
Ntp69
Rp70
(dp71
g12
(lp72
g0
(g25
g2
Ntp73
Rp74
(dp75
g18
I2
sg19
Nsg20
F0.5
sg21
g29
sg23
g30
sbasg31
I96
sg32
g4
sg33
I212
sg34
I28
sg35
S'0'
p76
sg37
I01
sg38
I00
sg39
g0
(cdfs
ConstProto
p77
g2
Ntp78
Rp79
(dp80
g44
(I96
I28
tp81
sg19
S'Const'
p82
sg12
g72
sbsg46
I286
sbg74
tp83
(lp84
(g0
(g8
g2
Ntp85
Rp86
(dp87
g12
(lp88
g0
(g14
g2
Ntp89
Rp90
(dp91
g18
I1
sg19
Nsg20
F0.33300000000000002
sg21
S'x'
p92
sg23
g30
sbag0
(g14
g2
Ntp93
Rp94
(dp95
g18
I1
sg19
Nsg20
F0.66600000000000004
sg21
S'0'
p96
sg23
g30
sbag0
(g25
g2
Ntp97
Rp98
(dp99
g18
I2
sg19
Nsg20
F0.5
sg21
g29
sg23
g24
sbasg31
I64
sg32
g4
sg33
I130
sg34
I64
sg35
S'1/z'
p100
sg37
I01
sg38
I00
sg39
g0
(cdfs
DelayProto
p101
g2
Ntp102
Rp103
(dp104
g38
I01
sg44
g45
sg19
g100
sg12
g88
sbsg46
I310
sbg94
tp105
as(g86
g98
tp106
(lp107
(g50
g58
tp108
as(g0
(g8
g2
Ntp109
Rp110
(dp111
g12
g72
sg31
I96
sg32
g4
sg33
I53
sg34
I28
sg35
S'1'
p112
sg37
I01
sg38
I00
sg39
g79
sg46
I61
sbg74
tp113
(lp114
(g10
g16
tp115
as(g0
(g8
g2
Ntp116
Rp117
(dp118
g12
g72
sg31
I96
sg32
g4
sg33
I192
sg34
I28
sg35
S'2'
p119
sg37
I01
sg38
I00
sg39
g79
sg46
I476
sbg74
tp120
(lp121
(g0
(g8
g2
Ntp122
Rp123
(dp124
g12
(lp125
g0
(g14
g2
Ntp126
Rp127
(dp128
g18
I1
sg19
Nsg20
F0.33300000000000002
sg21
g22
sg23
g24
sbag0
(g14
g2
Ntp129
Rp130
(dp131
g18
I1
sg19
Nsg20
F0.66600000000000004
sg21
g92
sg23
g24
sbasg31
I64
sg32
g4
sg33
I243
sg34
I64
sg35
S'do'
p132
sg37
I01
sg38
I00
sg39
g0
(g40
g2
Ntp133
Rp134
(dp135
g44
g45
sg19
g132
sg12
g125
sbsg46
I518
sbg127
tp136
as(g50
g62
tp137
(lp138
(g123
g130
tp139
assS'listeners'
p140
(lp141
sS'blocks'
p142
(lp143
g110
ag10
ag50
ag86
ag70
ag123
ag117
asb.